target datalayout = "e-m:e-p270:32:32-p271:32:32-p272:64:64-i64:64-i128:128-f80:128-n8:16:32:64-S128"
target triple = "x86_64-unknown-linux-gnu"

%struct.BlockCopyState = type { ptr, ptr, i64, i64, i64, i32, %struct.CoMutex, i64, i32, %struct.BlockReqList, %struct.anon.0, i8, ptr, ptr, ptr, %struct.RateLimit }
%struct.CoMutex = type { i32, ptr, %struct.anon, %struct.anon, i32, i32, ptr }
%struct.anon = type { ptr }
%struct.BlockReqList = type { ptr }
%struct.anon.0 = type { ptr }
%struct.RateLimit = type { %struct.QemuMutex, i64, i64, i64, i64, i64 }
%struct.QemuMutex = type { %union.pthread_mutex_t, i8 }
%union.pthread_mutex_t = type { %struct.__pthread_mutex_s }
%struct.__pthread_mutex_s = type { i32, i32, i32, i32, i32, i16, i16, %struct.__pthread_internal_list }
%struct.__pthread_internal_list = type { ptr, ptr }
%struct.CoQueue = type { %struct.anon.12 }
%struct.anon.12 = type { ptr, ptr }
%struct.QemuLockable = type { ptr, ptr, ptr }
%struct.BlockCopyTask = type { %struct.AioTask, ptr, ptr, i32, %struct.BlockReq }
%struct.AioTask = type { ptr, ptr, i32 }
%struct.BlockReq = type { i64, i64, %struct.CoQueue, %struct.anon.13 }
%struct.anon.13 = type { ptr, ptr }

@.str.1 = private unnamed_addr constant [27 x i8] c"../qemu/block/block-copy.c\00", align 1
@.str.29 = private unnamed_addr constant [45 x i8] c"new_bytes > 0 && new_bytes < task->req.bytes\00", align 1
@__PRETTY_FUNCTION__.block_copy_task_shrink = private unnamed_addr constant [54 x i8] c"void block_copy_task_shrink(BlockCopyTask *, int64_t)\00", align 1

; Function Attrs: nounwind sspstrong uwtable
define internal void @qemu_lockable_unlock(ptr noundef %x) #0 {
entry:
  %x.addr = alloca ptr, align 8
  store ptr %x, ptr %x.addr, align 8
  %0 = load ptr, ptr %x.addr, align 8
  %unlock = getelementptr inbounds %struct.QemuLockable, ptr %0, i32 0, i32 2
  %1 = load ptr, ptr %unlock, align 8
  %2 = load ptr, ptr %x.addr, align 8
  %object = getelementptr inbounds %struct.QemuLockable, ptr %2, i32 0, i32 0
  %3 = load ptr, ptr %object, align 8
  call void %1(ptr noundef %3)
  ret void
}

; Function Attrs: nounwind sspstrong uwtable
define internal void @qemu_lockable_auto_unlock(ptr noundef %x) #0 {
entry:
  %x.addr = alloca ptr, align 8
  store ptr %x, ptr %x.addr, align 8
  %0 = load ptr, ptr %x.addr, align 8
  %tobool = icmp ne ptr %0, null
  br i1 %tobool, label %if.then, label %if.end

if.then:                                          ; preds = %entry
  %1 = load ptr, ptr %x.addr, align 8
  call void @qemu_lockable_unlock(ptr noundef %1)
  br label %if.end

if.end:                                           ; preds = %if.then, %entry
  ret void
}

; Function Attrs: nounwind sspstrong uwtable
define internal void @glib_autoptr_clear_QemuLockable(ptr noundef %_ptr) #0 {
entry:
  %_ptr.addr = alloca ptr, align 8
  store ptr %_ptr, ptr %_ptr.addr, align 8
  %0 = load ptr, ptr %_ptr.addr, align 8
  %tobool = icmp ne ptr %0, null
  br i1 %tobool, label %if.then, label %if.end

if.then:                                          ; preds = %entry
  %1 = load ptr, ptr %_ptr.addr, align 8
  call void @qemu_lockable_auto_unlock(ptr noundef %1)
  br label %if.end

if.end:                                           ; preds = %if.then, %entry
  ret void
}

; Function Attrs: nounwind sspstrong uwtable
define internal void @qemu_lockable_lock(ptr noundef %x) #0 {
entry:
  %x.addr = alloca ptr, align 8
  store ptr %x, ptr %x.addr, align 8
  %0 = load ptr, ptr %x.addr, align 8
  %lock = getelementptr inbounds %struct.QemuLockable, ptr %0, i32 0, i32 1
  %1 = load ptr, ptr %lock, align 8
  %2 = load ptr, ptr %x.addr, align 8
  %object = getelementptr inbounds %struct.QemuLockable, ptr %2, i32 0, i32 0
  %3 = load ptr, ptr %object, align 8
  call void %1(ptr noundef %3)
  ret void
}

; Function Attrs: nounwind sspstrong uwtable
define internal void @glib_autoptr_cleanup_QemuLockable(ptr noundef %_ptr) #0 {
entry:
  %_ptr.addr = alloca ptr, align 8
  store ptr %_ptr, ptr %_ptr.addr, align 8
  %0 = load ptr, ptr %_ptr.addr, align 8
  %1 = load ptr, ptr %0, align 8
  call void @glib_autoptr_clear_QemuLockable(ptr noundef %1)
  ret void
}

; Function Attrs: nounwind sspstrong uwtable
define internal ptr @qemu_lockable_auto_lock(ptr noundef %x) #0 {
entry:
  %x.addr = alloca ptr, align 8
  store ptr %x, ptr %x.addr, align 8
  %0 = load ptr, ptr %x.addr, align 8
  call void @qemu_lockable_lock(ptr noundef %0)
  %1 = load ptr, ptr %x.addr, align 8
  ret ptr %1
}

; Function Attrs: nounwind sspstrong uwtable
define internal void @block_copy_task_shrink(ptr noundef %task, i64 noundef %new_bytes) #0 {
entry:
  %x.addr.i = alloca ptr, align 8
  %lockable.addr.i = alloca ptr, align 8
  %task.addr = alloca ptr, align 8
  %new_bytes.addr = alloca i64, align 8
  %qemu_lockable_auto15 = alloca ptr, align 8
  %.compoundliteral = alloca %struct.QemuLockable, align 8
  %cleanup.dest.slot = alloca i32, align 4
  store ptr %task, ptr %task.addr, align 8
  store i64 %new_bytes, ptr %new_bytes.addr, align 8
  %0 = load ptr, ptr %task.addr, align 8
  %s = getelementptr inbounds %struct.BlockCopyTask, ptr %0, i32 0, i32 1
  %1 = load ptr, ptr %s, align 8
  %lock = getelementptr inbounds %struct.BlockCopyState, ptr %1, i32 0, i32 6
  %object = getelementptr inbounds %struct.QemuLockable, ptr %.compoundliteral, i32 0, i32 0
  %2 = load ptr, ptr %task.addr, align 8
  %s1 = getelementptr inbounds %struct.BlockCopyTask, ptr %2, i32 0, i32 1
  %3 = load ptr, ptr %s1, align 8
  %lock2 = getelementptr inbounds %struct.BlockCopyState, ptr %3, i32 0, i32 6
  store ptr %lock2, ptr %object, align 8
  %lock3 = getelementptr inbounds %struct.QemuLockable, ptr %.compoundliteral, i32 0, i32 1
  store ptr @qemu_co_mutex_lock, ptr %lock3, align 8
  %unlock = getelementptr inbounds %struct.QemuLockable, ptr %.compoundliteral, i32 0, i32 2
  store ptr @qemu_co_mutex_unlock, ptr %unlock, align 8
  store ptr %lock, ptr %x.addr.i, align 8
  store ptr %.compoundliteral, ptr %lockable.addr.i, align 8
  %4 = load ptr, ptr %x.addr.i, align 8
  %tobool.i = icmp ne ptr %4, null
  br i1 %tobool.i, label %cond.true.i, label %cond.false.i

cond.true.i:                                      ; preds = %entry
  %5 = load ptr, ptr %lockable.addr.i, align 8
  br label %qemu_make_lockable.exit

cond.false.i:                                     ; preds = %entry
  br label %qemu_make_lockable.exit

qemu_make_lockable.exit:                          ; preds = %cond.false.i, %cond.true.i
  %cond.i = phi ptr [ %5, %cond.true.i ], [ null, %cond.false.i ]
  %call4 = call ptr @qemu_lockable_auto_lock(ptr noundef %cond.i)
  store ptr %call4, ptr %qemu_lockable_auto15, align 8
  %6 = load i64, ptr %new_bytes.addr, align 8
  %7 = load ptr, ptr %task.addr, align 8
  %req = getelementptr inbounds %struct.BlockCopyTask, ptr %7, i32 0, i32 4
  %bytes = getelementptr inbounds %struct.BlockReq, ptr %req, i32 0, i32 1
  %8 = load i64, ptr %bytes, align 8
  %cmp = icmp eq i64 %6, %8
  br i1 %cmp, label %if.then, label %if.end

if.then:                                          ; preds = %qemu_make_lockable.exit
  store i32 1, ptr %cleanup.dest.slot, align 4
  br label %cleanup

if.end:                                           ; preds = %qemu_make_lockable.exit
  %9 = load i64, ptr %new_bytes.addr, align 8
  %cmp5 = icmp sgt i64 %9, 0
  br i1 %cmp5, label %land.lhs.true, label %if.else

land.lhs.true:                                    ; preds = %if.end
  %10 = load i64, ptr %new_bytes.addr, align 8
  %11 = load ptr, ptr %task.addr, align 8
  %req6 = getelementptr inbounds %struct.BlockCopyTask, ptr %11, i32 0, i32 4
  %bytes7 = getelementptr inbounds %struct.BlockReq, ptr %req6, i32 0, i32 1
  %12 = load i64, ptr %bytes7, align 8
  %cmp8 = icmp slt i64 %10, %12
  br i1 %cmp8, label %if.then9, label %if.else

if.then9:                                         ; preds = %land.lhs.true
  br label %if.end10

if.else:                                          ; preds = %land.lhs.true, %if.end
  call void @__assert_fail(ptr noundef @.str.29, ptr noundef @.str.1, i32 noundef 239, ptr noundef @__PRETTY_FUNCTION__.block_copy_task_shrink) #8
  unreachable

if.end10:                                         ; preds = %if.then9
  %13 = load ptr, ptr %task.addr, align 8
  %req11 = getelementptr inbounds %struct.BlockCopyTask, ptr %13, i32 0, i32 4
  %bytes12 = getelementptr inbounds %struct.BlockReq, ptr %req11, i32 0, i32 1
  %14 = load i64, ptr %bytes12, align 8
  %15 = load i64, ptr %new_bytes.addr, align 8
  %sub = sub i64 %14, %15
  %16 = load ptr, ptr %task.addr, align 8
  %s13 = getelementptr inbounds %struct.BlockCopyTask, ptr %16, i32 0, i32 1
  %17 = load ptr, ptr %s13, align 8
  %in_flight_bytes = getelementptr inbounds %struct.BlockCopyState, ptr %17, i32 0, i32 7
  %18 = load i64, ptr %in_flight_bytes, align 8
  %sub14 = sub i64 %18, %sub
  store i64 %sub14, ptr %in_flight_bytes, align 8
  %19 = load ptr, ptr %task.addr, align 8
  %s15 = getelementptr inbounds %struct.BlockCopyTask, ptr %19, i32 0, i32 1
  %20 = load ptr, ptr %s15, align 8
  %copy_bitmap = getelementptr inbounds %struct.BlockCopyState, ptr %20, i32 0, i32 12
  %21 = load ptr, ptr %copy_bitmap, align 8
  %22 = load ptr, ptr %task.addr, align 8
  %req16 = getelementptr inbounds %struct.BlockCopyTask, ptr %22, i32 0, i32 4
  %offset = getelementptr inbounds %struct.BlockReq, ptr %req16, i32 0, i32 0
  %23 = load i64, ptr %offset, align 8
  %24 = load i64, ptr %new_bytes.addr, align 8
  %add = add i64 %23, %24
  %25 = load ptr, ptr %task.addr, align 8
  %req17 = getelementptr inbounds %struct.BlockCopyTask, ptr %25, i32 0, i32 4
  %bytes18 = getelementptr inbounds %struct.BlockReq, ptr %req17, i32 0, i32 1
  %26 = load i64, ptr %bytes18, align 8
  %27 = load i64, ptr %new_bytes.addr, align 8
  %sub19 = sub i64 %26, %27
  call void @bdrv_set_dirty_bitmap(ptr noundef %21, i64 noundef %add, i64 noundef %sub19)
  %28 = load ptr, ptr %task.addr, align 8
  %req20 = getelementptr inbounds %struct.BlockCopyTask, ptr %28, i32 0, i32 4
  %29 = load i64, ptr %new_bytes.addr, align 8
  call void @reqlist_shrink_req(ptr noundef %req20, i64 noundef %29)
  store i32 0, ptr %cleanup.dest.slot, align 4
  br label %cleanup

cleanup:                                          ; preds = %if.end10, %if.then
  call void @glib_autoptr_cleanup_QemuLockable(ptr noundef %qemu_lockable_auto15)
  %cleanup.dest = load i32, ptr %cleanup.dest.slot, align 4
  switch i32 %cleanup.dest, label %unreachable [
    i32 0, label %cleanup.cont
    i32 1, label %cleanup.cont
  ]

cleanup.cont:                                     ; preds = %cleanup, %cleanup
  ret void

unreachable:                                      ; preds = %cleanup
  unreachable
}