; Function Attrs: nounwind sspstrong uwtable
define internal void @block_copy_task_shrink(ptr noundef %task, i64 noundef %new_bytes) #0 {
entry:
  %s = getelementptr inbounds nuw i8, ptr %task, i64 24
  %0 = load ptr, ptr %s, align 8
  %lock = getelementptr inbounds nuw i8, ptr %0, i64 48
  tail call void @qemu_co_mutex_lock(ptr noundef nonnull %lock) #14
  %req = getelementptr inbounds nuw i8, ptr %task, i64 48
  %bytes = getelementptr inbounds nuw i8, ptr %task, i64 56
  %1 = load i64, ptr %bytes, align 8
  %cmp = icmp eq i64 %new_bytes, %1
  br i1 %cmp, label %glib_autoptr_cleanup_QemuLockable.exit, label %if.end

if.end:                                           ; preds = %entry
  %cmp5 = icmp sgt i64 %new_bytes, 0
  %cmp8 = icmp slt i64 %new_bytes, %1
  %or.cond = and i1 %cmp5, %cmp8
  br i1 %or.cond, label %if.end10, label %if.else

if.else:                                          ; preds = %if.end
  tail call void @__assert_fail(ptr noundef nonnull @.str.29, ptr noundef nonnull @.str.1, i32 noundef 239, ptr noundef nonnull @__PRETTY_FUNCTION__.block_copy_task_shrink) #15
  unreachable

if.end10:                                         ; preds = %if.end
  %sub.neg = sub i64 %new_bytes, %1
  %2 = load ptr, ptr %s, align 8
  %in_flight_bytes = getelementptr inbounds nuw i8, ptr %2, i64 96
  %3 = load i64, ptr %in_flight_bytes, align 8
  %sub14 = add i64 %sub.neg, %3
  store i64 %sub14, ptr %in_flight_bytes, align 8
  %4 = load ptr, ptr %s, align 8
  %copy_bitmap = getelementptr inbounds nuw i8, ptr %4, i64 136
  %5 = load ptr, ptr %copy_bitmap, align 8
  %6 = load i64, ptr %req, align 8
  %add = add i64 %6, %new_bytes
  %7 = load i64, ptr %bytes, align 8
  %sub19 = sub i64 %7, %new_bytes
  tail call void @bdrv_set_dirty_bitmap(ptr noundef %5, i64 noundef %add, i64 noundef %sub19) #14
  tail call void @reqlist_shrink_req(ptr noundef nonnull %req, i64 noundef %new_bytes) #14
  br label %glib_autoptr_cleanup_QemuLockable.exit

glib_autoptr_cleanup_QemuLockable.exit:           ; preds = %entry, %if.end10
  tail call void @qemu_co_mutex_unlock(ptr noundef nonnull %lock) #14
  ret void
}